; Function Attrs: nounwind uwtable
define dso_local noundef i32 @errcode_for_file_access() local_unnamed_addr #3 {
  %1 = load i32, ptr @errordata_stack_depth, align 4
  %2 = sext i32 %1 to i64
  %3 = getelementptr inbounds [5 x %struct.ErrorData], ptr @errordata, i64 0, i64 %2
  %4 = icmp slt i32 %1, 0
  br i1 %4, label %5, label %8

5:                                                ; preds = %0
  store i32 -1, ptr @errordata_stack_depth, align 4
  %6 = tail call zeroext i1 @errstart_cold(i32 noundef 21, ptr noundef null) #33
  tail call void @llvm.assume(i1 %6)
  %7 = tail call i32 (ptr, ...) @errmsg_internal(ptr noundef nonnull @.str.1)
  tail call void @errfinish(ptr noundef nonnull @.str.2, i32 noundef 881, ptr noundef nonnull @__func__.errcode_for_file_access)
  unreachable

8:                                                ; preds = %0
  %9 = getelementptr inbounds nuw i8, ptr %3, i64 168
  %10 = load i32, ptr %9, align 8
  switch i32 %10, label %19 [
    i32 1, label %20
    i32 13, label %20
    i32 30, label %20
    i32 2, label %11
    i32 17, label %12
    i32 20, label %13
    i32 21, label %13
    i32 39, label %13
    i32 28, label %14
    i32 12, label %15
    i32 23, label %16
    i32 24, label %16
    i32 5, label %17
    i32 36, label %18
  ]

11:                                               ; preds = %8
  br label %20

12:                                               ; preds = %8
  br label %20

13:                                               ; preds = %8, %8, %8
  br label %20

14:                                               ; preds = %8
  br label %20

15:                                               ; preds = %8
  br label %20

16:                                               ; preds = %8, %8
  br label %20

17:                                               ; preds = %8
  br label %20

18:                                               ; preds = %8
  br label %20

19:                                               ; preds = %8
  br label %20

20:                                               ; preds = %8, %8, %8, %19, %18, %17, %16, %15, %14, %13, %12, %11
  %.sink = phi i32 [ 2600, %19 ], [ 50463237, %18 ], [ 786949, %17 ], [ 197, %16 ], [ 8389, %15 ], [ 4293, %14 ], [ 151027844, %13 ], [ 33686021, %12 ], [ 16908805, %11 ], [ 16797828, %8 ], [ 16797828, %8 ], [ 16797828, %8 ]
  %21 = getelementptr inbounds nuw i8, ptr %3, i64 48
  store i32 %.sink, ptr %21, align 8
  ret i32 0
}